; Function Attrs: mustprogress uwtable
define internal void @_ZN4base12_GLOBAL__N_127PersistentSampleMapIterator4NextEv(ptr noundef nonnull align 8 dereferenceable(24) %0) unnamed_addr #0 align 2 personality ptr @__gxx_personality_v0 {
  %2 = getelementptr inbounds nuw i8, ptr %0, i64 8
  %3 = load ptr, ptr %2, align 8, !tbaa !66
  %4 = tail call noundef ptr @_ZSt18_Rb_tree_incrementPKSt18_Rb_tree_node_base(ptr noundef %3) #16
  store ptr %4, ptr %2, align 8, !tbaa !66
  %5 = load ptr, ptr %0, align 8, !tbaa !3
  %6 = getelementptr inbounds nuw i8, ptr %5, i64 16
  %7 = load ptr, ptr %6, align 8
  %8 = tail call noundef zeroext i1 %7(ptr noundef nonnull align 8 dereferenceable(24) %0)
  br i1 %8, label %_ZN4base12_GLOBAL__N_127PersistentSampleMapIterator16SkipEmptyBucketsEv.exit, label %.lr.ph.i

.lr.ph.i:                                         ; preds = %1, %14
  %9 = load ptr, ptr %2, align 8, !tbaa !66
  %10 = getelementptr inbounds nuw i8, ptr %9, i64 40
  %11 = load ptr, ptr %10, align 8, !tbaa !36
  %12 = load i32, ptr %11, align 4, !tbaa !32
  %13 = icmp eq i32 %12, 0
  br i1 %13, label %14, label %_ZN4base12_GLOBAL__N_127PersistentSampleMapIterator16SkipEmptyBucketsEv.exit

14:                                               ; preds = %.lr.ph.i
  %15 = tail call noundef ptr @_ZSt18_Rb_tree_incrementPKSt18_Rb_tree_node_base(ptr noundef nonnull %9) #16
  store ptr %15, ptr %2, align 8, !tbaa !66
  %16 = load ptr, ptr %0, align 8, !tbaa !3
  %17 = getelementptr inbounds nuw i8, ptr %16, i64 16
  %18 = load ptr, ptr %17, align 8
  %19 = tail call noundef zeroext i1 %18(ptr noundef nonnull align 8 dereferenceable(24) %0)
  br i1 %19, label %_ZN4base12_GLOBAL__N_127PersistentSampleMapIterator16SkipEmptyBucketsEv.exit, label %.lr.ph.i, !llvm.loop !68

_ZN4base12_GLOBAL__N_127PersistentSampleMapIterator16SkipEmptyBucketsEv.exit: ; preds = %.lr.ph.i, %14, %1
  ret void
}